(dp0
<<<<<<< HEAD
S'steel'
=======
S'i_sword'
>>>>>>> origin/master
p1
(dp2
S'rname'
p3
<<<<<<< HEAD
S'"steel"'
p4
sS'sortable'
p5
I9
sS'raw_rname'
p6
g1
=======
S'"i_sword"'
p4
sS'sortable'
p5
I13
sS'raw_rname'
p6
S'i_sword'
p7
>>>>>>> origin/master
sS'notnull'
p7
I00
sS'length'
p8
I512
sS'sql'
p9
S'INTEGER'
p10
sS'unique'
p11
I00
sS'type'
p12
S'integer'
<<<<<<< HEAD
p13
ssS'mithril'
p14
(dp15
g3
S'"mithril"'
p16
sg5
I8
sg6
g14
sg7
=======
p14
ssS's_sword'
p15
(dp16
g3
S'"s_sword"'
p17
sg5
I14
sg6
S's_sword'
p18
sg8
>>>>>>> origin/master
I00
sg8
I512
sg9
S'INTEGER'
p17
sg11
I00
<<<<<<< HEAD
sg12
g13
ssS'houses'
p18
(dp19
g3
S'"houses"'
p20
sg5
I12
sg6
g18
sg7
=======
sg13
g14
ssS'mithril'
p20
(dp21
g3
S'"mithril"'
p22
sg5
I8
sg6
S'mithril'
p23
sg8
>>>>>>> origin/master
I00
sg8
I512
sg9
S'INTEGER'
p21
sg11
I00
<<<<<<< HEAD
sg12
g13
ssS'leather'
p22
(dp23
g3
S'"leather"'
p24
sg5
I11
sg6
g22
sg7
=======
sg13
g14
ssS'houses'
p25
(dp26
g3
S'"houses"'
p27
sg5
I16
sg6
S'houses'
p28
sg8
>>>>>>> origin/master
I00
sg8
I512
sg9
S'INTEGER'
<<<<<<< HEAD
p25
sg11
I00
sg12
g13
ssS'warriors'
p26
(dp27
g3
S'"warriors"'
p28
sg5
I15
sg6
g26
sg7
=======
p29
sg12
I00
sg13
g14
ssS'fighters'
p30
(dp31
g3
S'"fighters"'
p32
sg5
I21
sg6
S'fighters'
p33
sg8
I00
sg9
I512
sg10
S'INTEGER'
p34
sg12
I00
sg13
g14
ssS'id'
p35
(dp36
g3
S'"id"'
p37
sg5
I1
sg6
S'id'
p38
sg8
>>>>>>> origin/master
I00
sg8
I512
<<<<<<< HEAD
sg9
S'INTEGER'
p29
sg11
I00
sg12
g13
ssS'workers'
p30
(dp31
g3
S'"workers"'
p32
=======
sg10
S'INTEGER PRIMARY KEY AUTOINCREMENT'
p39
sg12
I00
sg13
g38
ssS'steel'
p40
(dp41
g3
S'"steel"'
p42
>>>>>>> origin/master
sg5
I9
sg6
<<<<<<< HEAD
g30
sg7
I00
=======
S'steel'
p43
sg8
I00
sg9
I512
sg10
S'INTEGER'
p44
sg12
I00
sg13
g14
ssS'leather'
p45
(dp46
g3
S'"leather"'
p47
sg5
I11
sg6
S'leather'
p48
>>>>>>> origin/master
sg8
I512
<<<<<<< HEAD
=======
sg10
S'INTEGER'
p49
sg12
I00
sg13
g14
ssS'warriors'
p50
(dp51
g3
S'"warriors"'
p52
sg5
I19
sg6
S'warriors'
p53
sg8
I00
>>>>>>> origin/master
sg9
S'INTEGER'
p33
sg11
I00
<<<<<<< HEAD
sg12
g13
ssS'counter'
p34
(dp35
g3
S'"counter"'
p36
sg5
I5
sg6
g34
sg7
=======
sg13
g14
ssS'workers'
p55
(dp56
g3
S'"workers"'
p57
sg5
I17
sg6
S'workers'
p58
sg8
>>>>>>> origin/master
I00
sg8
I512
sg9
S'INTEGER'
p37
sg11
I00
<<<<<<< HEAD
sg12
g13
ssS'fighters'
p38
(dp39
g3
S'"fighters"'
p40
=======
sg13
g14
ssS'counter'
p60
(dp61
g3
S'"counter"'
p62
>>>>>>> origin/master
sg5
I5
sg6
<<<<<<< HEAD
g38
sg7
=======
S'counter'
p63
sg8
>>>>>>> origin/master
I00
sg8
I512
sg9
S'INTEGER'
p41
sg11
I00
<<<<<<< HEAD
sg12
g13
ssS'bowmen'
p42
(dp43
g3
S'"bowmen"'
p44
sg5
I16
sg6
g42
sg7
=======
sg13
g14
ssS'm_sword'
p65
(dp66
g3
S'"m_sword"'
p67
sg5
I15
sg6
S'm_sword'
p68
sg8
>>>>>>> origin/master
I00
sg8
I512
sg9
S'INTEGER'
p45
sg11
I00
sg12
g13
ssS'coal'
p46
(dp47
g3
S'"coal"'
p48
sg5
I6
sg6
g46
sg7
I00
sg8
I512
sg9
S'INTEGER'
p49
sg11
I00
<<<<<<< HEAD
sg12
g13
ssS'created_on'
p50
(dp51
g3
S'"created_on"'
p52
sg5
I3
sg6
g50
sg7
=======
sg13
g14
ssS'bowmen'
p81
(dp82
g3
S'"bowmen"'
p83
sg5
I20
sg6
S'bowmen'
p84
sg8
>>>>>>> origin/master
I00
sg8
I512
sg9
S'TIMESTAMP'
p53
sg11
I00
sg12
S'datetime'
p54
ssS'wood'
p55
(dp56
g3
S'"wood"'
p57
sg5
I10
sg6
g55
sg7
I00
sg8
I512
sg9
S'INTEGER'
p58
sg11
I00
<<<<<<< HEAD
sg12
g13
ssS'iron'
p59
(dp60
g3
S'"iron"'
p61
sg5
I7
sg6
g59
sg7
=======
sg13
g14
ssS'w_sword'
p91
(dp92
g3
S'"w_sword"'
p93
sg5
I12
sg6
S'w_sword'
p94
sg8
>>>>>>> origin/master
I00
sg8
I512
sg9
S'INTEGER'
p62
sg11
I00
<<<<<<< HEAD
sg12
g13
ssS'mages'
p63
(dp64
g3
S'"mages"'
p65
sg5
I14
sg6
g63
sg7
=======
sg13
g14
ssS'iron'
p96
(dp97
g3
S'"iron"'
p98
sg5
I7
sg6
S'iron'
p99
sg8
>>>>>>> origin/master
I00
sg8
I512
sg9
S'INTEGER'
p66
sg11
I00
<<<<<<< HEAD
sg12
g13
ssS'updated_on'
p67
(dp68
g3
S'"updated_on"'
p69
=======
sg13
g14
ssS'mages'
p101
(dp102
g3
S'"mages"'
p103
>>>>>>> origin/master
sg5
I18
sg6
<<<<<<< HEAD
g67
sg7
=======
S'mages'
p104
sg8
>>>>>>> origin/master
I00
sg8
I512
<<<<<<< HEAD
sg9
S'TIMESTAMP'
p70
sg11
I00
sg12
g54
ssS'id'
p71
(dp72
g3
S'"id"'
p73
sg5
I1
sg6
g71
sg7
=======
sg10
S'INTEGER'
p105
sg12
I00
sg13
g14
ssS'updated_on'
p106
(dp107
g3
S'"updated_on"'
p108
sg5
I4
sg6
S'updated_on'
p109
sg8
>>>>>>> origin/master
I00
sg8
I512
<<<<<<< HEAD
sg9
S'INTEGER PRIMARY KEY AUTOINCREMENT'
p74
sg11
I00
sg12
g71
=======
sg10
S'TIMESTAMP'
p110
sg12
I00
sg13
g75
>>>>>>> origin/master
ssS'user_email'
p75
(dp76
g3
S'"user_email"'
p77
sg5
I2
sg6
g75
sg7
I00
sg8
I512
sg9
S'CHAR(512)'
p78
sg11
I00
sg12
S'string'
p79
ss.