(dp1
S'output'
p2
S"<class 'sqlite3.OperationalError'> no such column: userdb.created_on"
p3
sS'layer'
p4
S'C:\\Users\\Jack\\WorkspacePython\\Cmps183WebApps\\Cmps183Project\\web2py\\applications\\mercenary_game\\controllers/api.py'
p5
sS'code'
p6
S'<code object <module> at 0C524968, file "C:\\Users\\Jack\\WorkspacePython\\Cmps183WebApps\\Cmps183Project\\web2py\\applications\\mercenary_game\\controllers/api.py", line 3>'
p7
sS'snapshot'
p8
(dp9
S'exception'
p10
(dp11
S'__module__'
p12
S"'sqlite3'"
p13
sS'__getslice__'
p14
S"<method-wrapper '__getslice__' of OperationalError object>"
p15
sS'__str__'
p16
S"<method-wrapper '__str__' of OperationalError object>"
p17
sS'__reduce__'
p18
S'<built-in method __reduce__ of OperationalError object>'
p19
sS'__dict__'
p20
S'{}'
p21
sS'__sizeof__'
p22
S'<built-in method __sizeof__ of OperationalError object>'
p23
sS'__weakref__'
p24
S'None'
p25
sS'message'
p26
S"'no such column: userdb.created_on'"
p27
sS'__init__'
p28
S"<method-wrapper '__init__' of OperationalError object>"
p29
sS'__setattr__'
p30
S"<method-wrapper '__setattr__' of OperationalError object>"
p31
sS'__reduce_ex__'
p32
S'<built-in method __reduce_ex__ of OperationalError object>'
p33
sS'__new__'
p34
S'<built-in method __new__ of type object>'
p35
sS'__format__'
p36
S'<built-in method __format__ of OperationalError object>'
p37
sS'__class__'
p38
S"<class 'sqlite3.OperationalError'>"
p39
sS'__doc__'
p40
S'None'
p41
sS'__getitem__'
p42
S"<method-wrapper '__getitem__' of OperationalError object>"
p43
sS'__setstate__'
p44
S'<built-in method __setstate__ of OperationalError object>'
p45
sS'__getattribute__'
p46
S"<method-wrapper '__getattribute__' of OperationalError object>"
p47
sS'args'
p48
S"('no such column: userdb.created_on',)"
p49
sS'__subclasshook__'
p50
S'<built-in method __subclasshook__ of type object>'
p51
sS'__unicode__'
p52
S'<built-in method __unicode__ of OperationalError object>'
p53
sS'__delattr__'
p54
S"<method-wrapper '__delattr__' of OperationalError object>"
p55
sS'__repr__'
p56
S"<method-wrapper '__repr__' of OperationalError object>"
p57
sS'__hash__'
p58
S"<method-wrapper '__hash__' of OperationalError object>"
p59
ssS'evalue'
p60
S'no such column: userdb.created_on'
p61
sS'request'
p62
cgluon.html
XML_unpickle
p63
(S's\xf2l\x00\x00<div><table><tr><td style="font-weight:bold;vertical-align:top;">ajax</td><td style="vertical-align:top;">:</td><td><div>True</div></td></tr><tr><td style="font-weight:bold;vertical-align:top;">application</td><td style="vertical-align:top;">:</td><td><div>mercenary_game</div></td></tr><tr><td style="font-weight:bold;vertical-align:top;">args</td><td style="vertical-align:top;">:</td><td><div><table></table></div></td></tr><tr><td style="font-weight:bold;vertical-align:top;">cid</td><td style="vertical-align:top;">:</td><td><div>None</div></td></tr><tr><td style="font-weight:bold;vertical-align:top;">client</td><td style="vertical-align:top;">:</td><td><div>127.0.0.1</div></td></tr><tr><td style="font-weight:bold;vertical-align:top;">controller</td><td style="vertical-align:top;">:</td><td><div>api</div></td></tr><tr><td style="font-weight:bold;vertical-align:top;">cookies</td><td style="vertical-align:top;">:</td><td><div><table><tr><td style="font-weight:bold;vertical-align:top;">session_id_admin</td><td style="vertical-align:top;">:</td><td><div>127.0.0.1-9d88295b-c8c0-4da8-81e6-c2bf2328b91d<table><tr><td style="font-weight:bold;vertical-align:top;">comment</td><td style="vertical-align:top;">:</td><td><div></div></td></tr><tr><td style="font-weight:bold;vertical-align:top;">domain</td><td style="vertical-align:top;">:</td><td><div></div></td></tr><tr><td style="font-weight:bold;vertical-align:top;">expires</td><td style="vertical-align:top;">:</td><td><div></div></td></tr><tr><td style="font-weight:bold;vertical-align:top;">httponly</td><td style="vertical-align:top;">:</td><td><div></div></td></tr><tr><td style="font-weight:bold;vertical-align:top;">max-age</td><td style="vertical-align:top;">:</td><td><div></div></td></tr><tr><td style="font-weight:bold;vertical-align:top;">path</td><td style="vertical-align:top;">:</td><td><div></div></td></tr><tr><td style="font-weight:bold;vertical-align:top;">secure</td><td style="vertical-align:top;">:</td><td><div></div></td></tr><tr><td style="font-weight:bold;vertical-align:top;">version</td><td style="vertical-align:top;">:</td><td><div></div></td></tr></table></div></td></tr><tr><td style="font-weight:bold;vertical-align:top;">session_id_mercenary_game</td><td style="vertical-align:top;">:</td><td><div>16:3fdbe514-e762-4fa1-9b3b-549a29d20857<table><tr><td style="font-weight:bold;vertical-align:top;">comment</td><td style="vertical-align:top;">:</td><td><div></div></td></tr><tr><td style="font-weight:bold;vertical-align:top;">domain</td><td style="vertical-align:top;">:</td><td><div></div></td></tr><tr><td style="font-weight:bold;vertical-align:top;">expires</td><td style="vertical-align:top;">:</td><td><div></div></td></tr><tr><td style="font-weight:bold;vertical-align:top;">httponly</td><td style="vertical-align:top;">:</td><td><div></div></td></tr><tr><td style="font-weight:bold;vertical-align:top;">max-age</td><td style="vertical-align:top;">:</td><td><div></div></td></tr><tr><td style="font-weight:bold;vertical-align:top;">path</td><td style="vertical-align:top;">:</td><td><div></div></td></tr><tr><td style="font-weight:bold;vertical-align:top;">secure</td><td style="vertical-align:top;">:</td><td><div></div></td></tr><tr><td style="font-weight:bold;vertical-align:top;">version</td><td style="vertical-align:top;">:</td><td><div></div></td></tr></table></div></td></tr><tr><td style="font-weight:bold;vertical-align:top;">session_id_start</td><td style="vertical-align:top;">:</td><td><div>2:50f3f045-3659-4f5b-abab-addf11d59b5d<table><tr><td style="font-weight:bold;vertical-align:top;">comment</td><td style="vertical-align:top;">:</td><td><div></div></td></tr><tr><td style="font-weight:bold;vertical-align:top;">domain</td><td style="vertical-align:top;">:</td><td><div></div></td></tr><tr><td style="font-weight:bold;vertical-align:top;">expires</td><td style="vertical-align:top;">:</td><td><div></div></td></tr><tr><td style="font-weight:bold;vertical-align:top;">httponly</td><td style="vertical-align:top;">:</td><td><div></div></td></tr><tr><td style="font-weight:bold;vertical-align:top;">max-age</td><td style="vertical-align:top;">:</td><td><div></div></td></tr><tr><td style="font-weight:bold;vertical-align:top;">path</td><td style="vertical-align:top;">:</td><td><div></div></td></tr><tr><td style="font-weight:bold;vertical-align:top;">secure</td><td style="vertical-align:top;">:</td><td><div></div></td></tr><tr><td style="font-weight:bold;vertical-align:top;">version</td><td style="vertical-align:top;">:</td><td><div></div></td></tr></table></div></td></tr><tr><td style="font-weight:bold;vertical-align:top;">session_id_welcome</td><td style="vertical-align:top;">:</td><td><div>127.0.0.1-589a386d-d455-4df5-b2e9-99b3cc21ccf2<table><tr><td style="font-weight:bold;vertical-align:top;">comment</td><td style="vertical-align:top;">:</td><td><div></div></td></tr><tr><td style="font-weight:bold;vertical-align:top;">domain</td><td style="vertical-align:top;">:</td><td><div></div></td></tr><tr><td style="font-weight:bold;vertical-align:top;">expires</td><td style="vertical-align:top;">:</td><td><div></div></td></tr><tr><td style="font-weight:bold;vertical-align:top;">httponly</td><td style="vertical-align:top;">:</td><td><div></div></td></tr><tr><td style="font-weight:bold;vertical-align:top;">max-age</td><td style="vertical-align:top;">:</td><td><div></div></td></tr><tr><td style="font-weight:bold;vertical-align:top;">path</td><td style="vertical-align:top;">:</td><td><div></div></td></tr><tr><td style="font-weight:bold;vertical-align:top;">secure</td><td style="vertical-align:top;">:</td><td><div></div></td></tr><tr><td style="font-weight:bold;vertical-align:top;">version</td><td style="vertical-align:top;">:</td><td><div></div></td></tr></table></div></td></tr></table></div></td></tr><tr><td style="font-weight:bold;vertical-align:top;">env</td><td style="vertical-align:top;">:</td><td><div><table><tr><td style="font-weight:bold;vertical-align:top;">CONTENT_LENGTH</td><td style="vertical-align:top;">:</td><td><div>10</div></td></tr><tr><td style="font-weight:bold;vertical-align:top;">CONTENT_TYPE</td><td style="vertical-align:top;">:</td><td><div>application/x-www-form-urlencoded; charset=UTF-8</div></td></tr><tr><td style="font-weight:bold;vertical-align:top;">HTTP_ACCEPT</td><td style="vertical-align:top;">:</td><td><div>*/*</div></td></tr><tr><td style="font-weight:bold;vertical-align:top;">HTTP_ACCEPT_ENCODING</td><td style="vertical-align:top;">:</td><td><div>gzip, deflate, br</div></td></tr><tr><td style="font-weight:bold;vertical-align:top;">HTTP_ACCEPT_LANGUAGE</td><td style="vertical-align:top;">:</td><td><div>en-US,en;q=0.9</div></td></tr><tr><td style="font-weight:bold;vertical-align:top;">HTTP_CONNECTION</td><td style="vertical-align:top;">:</td><td><div>keep-alive</div></td></tr><tr><td style="font-weight:bold;vertical-align:top;">HTTP_CONTENT_LENGTH</td><td style="vertical-align:top;">:</td><td><div>10</div></td></tr><tr><td style="font-weight:bold;vertical-align:top;">HTTP_CONTENT_TYPE</td><td style="vertical-align:top;">:</td><td><div>application/x-www-form-urlencoded; charset=UTF-8</div></td></tr><tr><td style="font-weight:bold;vertical-align:top;">HTTP_COOKIE</td><td style="vertical-align:top;">:</td><td><div>session_id_start=&quot;2:50f3f045-3659-4f5b-abab-addf11d59b5d&quot;; session_id_admin=127.0.0.1-9d88295b-c8c0-4da8-81e6-c2bf2328b91d; session_id_welcome=127.0.0.1-589a386d-d455-4df5-b2e9-99b3cc21ccf2; session_id_mercenary_game=&quot;16:3fdbe514-e762-4fa1-9b3b-549a29d20857&quot;</div></td></tr><tr><td style="font-weight:bold;vertical-align:top;">HTTP_HOST</td><td style="vertical-align:top;">:</td><td><div>127.0.0.1:8000</div></td></tr><tr><td style="font-weight:bold;vertical-align:top;">HTTP_ORIGIN</td><td style="vertical-align:top;">:</td><td><div>http://127.0.0.1:8000</div></td></tr><tr><td style="font-weight:bold;vertical-align:top;">HTTP_REFERER</td><td style="vertical-align:top;">:</td><td><div>http://127.0.0.1:8000/mercenary_game/default/index</div></td></tr><tr><td style="font-weight:bold;vertical-align:top;">HTTP_USER_AGENT</td><td style="vertical-align:top;">:</td><td><div>Mozilla/5.0 (Windows NT 10.0; Win64; x64) AppleWebKit/537.36 (KHTML, like Gecko) Chrome/66.0.3359.181 Safari/537.36</div></td></tr><tr><td style="font-weight:bold;vertical-align:top;">HTTP_X_REQUESTED_WITH</td><td style="vertical-align:top;">:</td><td><div>XMLHttpRequest</div></td></tr><tr><td style="font-weight:bold;vertical-align:top;">PATH_INFO</td><td style="vertical-align:top;">:</td><td><div>/mercenary_game/api/save_resources</div></td></tr><tr><td style="font-weight:bold;vertical-align:top;">QUERY_STRING</td><td style="vertical-align:top;">:</td><td><div>_signature=7c8df5455e0257cdce2db4e0b0aee735eea36b68</div></td></tr><tr><td style="font-weight:bold;vertical-align:top;">REMOTE_ADDR</td><td style="vertical-align:top;">:</td><td><div>127.0.0.1</div></td></tr><tr><td style="font-weight:bold;vertical-align:top;">REMOTE_PORT</td><td style="vertical-align:top;">:</td><td><div>50620</div></td></tr><tr><td style="font-weight:bold;vertical-align:top;">REQUEST_METHOD</td><td style="vertical-align:top;">:</td><td><div>POST</div></td></tr><tr><td style="font-weight:bold;vertical-align:top;">SCRIPT_NAME</td><td style="vertical-align:top;">:</td><td><div></div></td></tr><tr><td style="font-weight:bold;vertical-align:top;">SERVER_NAME</td><td style="vertical-align:top;">:</td><td><div>Jack-PC</div></td></tr><tr><td style="font-weight:bold;vertical-align:top;">SERVER_PORT</td><td style="vertical-align:top;">:</td><td><div>8000</div></td></tr><tr><td style="font-weight:bold;vertical-align:top;">SERVER_PROTOCOL</td><td style="vertical-align:top;">:</td><td><div>HTTP/1.1</div></td></tr><tr><td style="font-weight:bold;vertical-align:top;">SERVER_SOFTWARE</td><td style="vertical-align:top;">:</td><td><div>Rocket 1.2.6</div></td></tr><tr><td style="font-weight:bold;vertical-align:top;">app_folders</td><td style="vertical-align:top;">:</td><td><div>set([&#x27;C:\\\\Users\\\\Jack\\\\WorkspacePython\\\\Cmps183WebApps\\\\Cmps183Project\\\\web2py\\\\applications\\\\mercenary_game\\\\&#x27;, &#x27;C:\\\\Users\\\\Jack\\\\WorkspacePython\\\\Cmps183WebApps\\\\Cmps183Project\\\\web2py\\\\applications\\\\admin\\\\&#x27;, &#x27;C:\\\\Users\\\\Jack\\\\WorkspacePython\\\\Cmps183WebApps\\\\Cmps183Project\\\\web2py\\\\applications\\\\welcome\\\\&#x27;])</div></td></tr><tr><td style="font-weight:bold;vertical-align:top;">applications_parent</td><td style="vertical-align:top;">:</td><td><div>C:\\Users\\Jack\\WorkspacePython\\Cmps183WebApps\\Cmps183Project\\web2py</div></td></tr><tr><td style="font-weight:bold;vertical-align:top;">cmd_args</td><td style="vertical-align:top;">:</td><td><div><table></table></div></td></tr><tr><td style="font-weight:bold;vertical-align:top;">cmd_options</td><td style="vertical-align:top;">:</td><td><div>&lt;Values at 0x6205b70: {&#x27;verbose&#x27;: False, &#x27;ip&#x27;: &#x27;127.0.0.1&#x27;, &#x27;debuglevel&#x27;: 30, &#x27;with_scheduler&#x27;: False, &#x27;shutdown_timeout&#x27;: 5, &#x27;taskbar&#x27;: False, &#x27;with_coverage&#x27;: False, &#x27;pid_filename&#x27;: &#x27;httpserver.pid&#x27;, &#x27;maxthreads&#x27;: None, &#x27;softcron&#x27;: False, &#x27;server_name&#x27;: &#x27;Jack-PC&#x27;, &#x27;bpython&#x27;: False, &#x27;nogui&#x27;: False, &#x27;port&#x27;: 8000, &#x27;print_errors&#x27;: True, &#x27;extcron&#x27;: False, &#x27;runcron&#x27;: False, &#x27;run_system_tests&#x27;: False, &#x27;test&#x27;: None, &#x27;folder&#x27;: &#x27;C:\\\\Users\\\\Jack\\\\WorkspacePython\\\\Cmps183WebApps\\\\Cmps183Project\\\\web2py&#x27;, &#x27;config&#x27;: &#x27;&#x27;, &#x27;minthreads&#x27;: None, &#x27;shell&#x27;: None, &#x27;run&#x27;: &#x27;&#x27;, &#x27;log_filename&#x27;: &#x27;httpserver.log&#x27;, &#x27;profiler_dir&#x27;: None, &#x27;args&#x27;: [&#x27;&#x27;], &#x27;socket_timeout&#x27;: 5, &#x27;ssl_ca_certificate&#x27;: None, &#x27;scheduler&#x27;: None, &#x27;interfaces&#x27;: None, &#x27;ssl_private_key&#x27;: &#x27;&#x27;, &#x27;gae&#x27;: None, &#x27;password&#x27;: &#x27;******&#x27;, &#x27;request_queue_size&#x27;: 5, &#x27;ssl_certificate&#x27;: &#x27;&#x27;, &#x27;cronjob&#x27;: False, &#x27;numthreads&#x27;: None, &#x27;quiet&#x27;: False, &#x27;import_models&#x27;: False, &#x27;timeout&#x27;: 10, &#x27;plain&#x27;: False, &#x27;nobanner&#x27;: False}&gt;</div></td></tr><tr><td style="font-weight:bold;vertical-align:top;">content_length</td><td style="vertical-align:top;">:</td><td><div>10</div></td></tr><tr><td style="font-weight:bold;vertical-align:top;">content_type</td><td style="vertical-align:top;">:</td><td><div>application/x-www-form-urlencoded; charset=UTF-8</div></td></tr><tr><td style="font-weight:bold;vertical-align:top;">db_sessions</td><td style="vertical-align:top;">:</td><td><div>set([&#x27;mercenary_game&#x27;])</div></td></tr><tr><td style="font-weight:bold;vertical-align:top;">debugging</td><td style="vertical-align:top;">:</td><td><div>True</div></td></tr><tr><td style="font-weight:bold;vertical-align:top;">gluon_parent</td><td style="vertical-align:top;">:</td><td><div>C:\\Users\\Jack\\WorkspacePython\\Cmps183WebApps\\Cmps183Project\\web2py</div></td></tr><tr><td style="font-weight:bold;vertical-align:top;">http_accept</td><td style="vertical-align:top;">:</td><td><div>*/*</div></td></tr><tr><td style="font-weight:bold;vertical-align:top;">http_accept_encoding</td><td style="vertical-align:top;">:</td><td><div>gzip, deflate, br</div></td></tr><tr><td style="font-weight:bold;vertical-align:top;">http_accept_language</td><td style="vertical-align:top;">:</td><td><div>en-US,en;q=0.9</div></td></tr><tr><td style="font-weight:bold;vertical-align:top;">http_connection</td><td style="vertical-align:top;">:</td><td><div>keep-alive</div></td></tr><tr><td style="font-weight:bold;vertical-align:top;">http_content_length</td><td style="vertical-align:top;">:</td><td><div>10</div></td></tr><tr><td style="font-weight:bold;vertical-align:top;">http_content_type</td><td style="vertical-align:top;">:</td><td><div>application/x-www-form-urlencoded; charset=UTF-8</div></td></tr><tr><td style="font-weight:bold;vertical-align:top;">http_cookie</td><td style="vertical-align:top;">:</td><td><div>session_id_start=&quot;2:50f3f045-3659-4f5b-abab-addf11d59b5d&quot;; session_id_admin=127.0.0.1-9d88295b-c8c0-4da8-81e6-c2bf2328b91d; session_id_welcome=127.0.0.1-589a386d-d455-4df5-b2e9-99b3cc21ccf2; session_id_mercenary_game=&quot;16:3fdbe514-e762-4fa1-9b3b-549a29d20857&quot;</div></td></tr><tr><td style="font-weight:bold;vertical-align:top;">http_host</td><td style="vertical-align:top;">:</td><td><div>127.0.0.1:8000</div></td></tr><tr><td style="font-weight:bold;vertical-align:top;">http_origin</td><td style="vertical-align:top;">:</td><td><div>http://127.0.0.1:8000</div></td></tr><tr><td style="font-weight:bold;vertical-align:top;">http_referer</td><td style="vertical-align:top;">:</td><td><div>http://127.0.0.1:8000/mercenary_game/default/index</div></td></tr><tr><td style="font-weight:bold;vertical-align:top;">http_user_agent</td><td style="vertical-align:top;">:</td><td><div>Mozilla/5.0 (Windows NT 10.0; Win64; x64) AppleWebKit/537.36 (KHTML, like Gecko) Chrome/66.0.3359.181 Safari/537.36</div></td></tr><tr><td style="font-weight:bold;vertical-align:top;">http_x_requested_with</td><td style="vertical-align:top;">:</td><td><div>XMLHttpRequest</div></td></tr><tr><td style="font-weight:bold;vertical-align:top;">is_jython</td><td style="vertical-align:top;">:</td><td><div>False</div></td></tr><tr><td style="font-weight:bold;vertical-align:top;">is_py2</td><td style="vertical-align:top;">:</td><td><div>True</div></td></tr><tr><td style="font-weight:bold;vertical-align:top;">is_pypy</td><td style="vertical-align:top;">:</td><td><div>False</div></td></tr><tr><td style="font-weight:bold;vertical-align:top;">is_source</td><td style="vertical-align:top;">:</td><td><div>True</div></td></tr><tr><td style="font-weight:bold;vertical-align:top;">local_hosts</td><td style="vertical-align:top;">:</td><td><div><table><tr><td><div>fe80::89a0:7f36:a9bf:6966%29</div></td></tr><tr><td><div>169.233.238.8</div></td></tr><tr><td><div>::ffff:127.0.0.1</div></td></tr><tr><td><div>::1</div></td></tr><tr><td><div>192.168.10.1</div></td></tr><tr><td><div>fe80::44e:f5b1:5483:4599%20</div></td></tr><tr><td><div>Jack-PC</div></td></tr><tr><td><div>fe80::4d3f:c5c:441b:a5fe%10</div></td></tr><tr><td><div>192.168.159.1</div></td></tr><tr><td><div>127.0.0.1</div></td></tr></table></div></td></tr><tr><td style="font-weight:bold;vertical-align:top;">path_info</td><td style="vertical-align:top;">:</td><td><div>/mercenary_game/api/save_resources</div></td></tr><tr><td style="font-weight:bold;vertical-align:top;">query_string</td><td style="vertical-align:top;">:</td><td><div>_signature=7c8df5455e0257cdce2db4e0b0aee735eea36b68</div></td></tr><tr><td style="font-weight:bold;vertical-align:top;">remote_addr</td><td style="vertical-align:top;">:</td><td><div>127.0.0.1</div></td></tr><tr><td style="font-weight:bold;vertical-align:top;">remote_port</td><td style="vertical-align:top;">:</td><td><div>50620</div></td></tr><tr><td style="font-weight:bold;vertical-align:top;">request_method</td><td style="vertical-align:top;">:</td><td><div>POST</div></td></tr><tr><td style="font-weight:bold;vertical-align:top;">request_uri</td><td style="vertical-align:top;">:</td><td><div>/mercenary_game/api/save_resources?_signature=7c8df5455e0257cdce2db4e0b0aee735eea36b68</div></td></tr><tr><td style="font-weight:bold;vertical-align:top;">script_name</td><td style="vertical-align:top;">:</td><td><div></div></td></tr><tr><td style="font-weight:bold;vertical-align:top;">server_name</td><td style="vertical-align:top;">:</td><td><div>Jack-PC</div></td></tr><tr><td style="font-weight:bold;vertical-align:top;">server_port</td><td style="vertical-align:top;">:</td><td><div>8000</div></td></tr><tr><td style="font-weight:bold;vertical-align:top;">server_protocol</td><td style="vertical-align:top;">:</td><td><div>HTTP/1.1</div></td></tr><tr><td style="font-weight:bold;vertical-align:top;">server_software</td><td style="vertical-align:top;">:</td><td><div>Rocket 1.2.6</div></td></tr><tr><td style="font-weight:bold;vertical-align:top;">web2py_path</td><td style="vertical-align:top;">:</td><td><div>C:\\Users\\Jack\\WorkspacePython\\Cmps183WebApps\\Cmps183Project\\web2py</div></td></tr><tr><td style="font-weight:bold;vertical-align:top;">web2py_version</td><td style="vertical-align:top;">:</td><td><div>2.16.1-stable+timestamp.2017.11.14.05.54.25</div></td></tr><tr><td style="font-weight:bold;vertical-align:top;">wsgi.errors</td><td style="vertical-align:top;">:</td><td><div>&lt;open file &#x27;&lt;stderr&gt;&#x27;, mode &#x27;w&#x27; at 0x0322D0D0&gt;</div></td></tr><tr><td style="font-weight:bold;vertical-align:top;">wsgi.file_wrapper</td><td style="vertical-align:top;">:</td><td><div>&lt;class wsgiref.util.FileWrapper at 0x061D1A40&gt;</div></td></tr><tr><td style="font-weight:bold;vertical-align:top;">wsgi.input</td><td style="vertical-align:top;">:</td><td><div>&lt;socket._fileobject object at 0x0D2FA2F0&gt;</div></td></tr><tr><td style="font-weight:bold;vertical-align:top;">wsgi.multiprocess</td><td style="vertical-align:top;">:</td><td><div>False</div></td></tr><tr><td style="font-weight:bold;vertical-align:top;">wsgi.multithread</td><td style="vertical-align:top;">:</td><td><div>True</div></td></tr><tr><td style="font-weight:bold;vertical-align:top;">wsgi.run_once</td><td style="vertical-align:top;">:</td><td><div>False</div></td></tr><tr><td style="font-weight:bold;vertical-align:top;">wsgi.url_scheme</td><td style="vertical-align:top;">:</td><td><div>http</div></td></tr><tr><td style="font-weight:bold;vertical-align:top;">wsgi.version</td><td style="vertical-align:top;">:</td><td><div><table><tr><td><div>1</div></td></tr><tr><td><div>0</div></td></tr></table></div></td></tr><tr><td style="font-weight:bold;vertical-align:top;">wsgi_errors</td><td style="vertical-align:top;">:</td><td><div>&lt;open file &#x27;&lt;stderr&gt;&#x27;, mode &#x27;w&#x27; at 0x0322D0D0&gt;</div></td></tr><tr><td style="font-weight:bold;vertical-align:top;">wsgi_file_wrapper</td><td style="vertical-align:top;">:</td><td><div>&lt;class wsgiref.util.FileWrapper at 0x061D1A40&gt;</div></td></tr><tr><td style="font-weight:bold;vertical-align:top;">wsgi_input</td><td style="vertical-align:top;">:</td><td><div>&lt;socket._fileobject object at 0x0D2FA2F0&gt;</div></td></tr><tr><td style="font-weight:bold;vertical-align:top;">wsgi_multiprocess</td><td style="vertical-align:top;">:</td><td><div>False</div></td></tr><tr><td style="font-weight:bold;vertical-align:top;">wsgi_multithread</td><td style="vertical-align:top;">:</td><td><div>True</div></td></tr><tr><td style="font-weight:bold;vertical-align:top;">wsgi_run_once</td><td style="vertical-align:top;">:</td><td><div>False</div></td></tr><tr><td style="font-weight:bold;vertical-align:top;">wsgi_url_scheme</td><td style="vertical-align:top;">:</td><td><div>http</div></td></tr><tr><td style="font-weight:bold;vertical-align:top;">wsgi_version</td><td style="vertical-align:top;">:</td><td><div><table><tr><td><div>1</div></td></tr><tr><td><div>0</div></td></tr></table></div></td></tr></table></div></td></tr><tr><td style="font-weight:bold;vertical-align:top;">extension</td><td style="vertical-align:top;">:</td><td><div>html</div></td></tr><tr><td style="font-weight:bold;vertical-align:top;">folder</td><td style="vertical-align:top;">:</td><td><div>C:\\Users\\Jack\\WorkspacePython\\Cmps183WebApps\\Cmps183Project\\web2py\\applications\\mercenary_game\\</div></td></tr><tr><td style="font-weight:bold;vertical-align:top;">function</td><td style="vertical-align:top;">:</td><td><div>save_resources</div></td></tr><tr><td style="font-weight:bold;vertical-align:top;">global_settings</td><td style="vertical-align:top;">:</td><td><div><table><tr><td style="font-weight:bold;vertical-align:top;">app_folders</td><td style="vertical-align:top;">:</td><td><div>set([&#x27;C:\\\\Users\\\\Jack\\\\WorkspacePython\\\\Cmps183WebApps\\\\Cmps183Project\\\\web2py\\\\applications\\\\mercenary_game\\\\&#x27;, &#x27;C:\\\\Users\\\\Jack\\\\WorkspacePython\\\\Cmps183WebApps\\\\Cmps183Project\\\\web2py\\\\applications\\\\admin\\\\&#x27;, &#x27;C:\\\\Users\\\\Jack\\\\WorkspacePython\\\\Cmps183WebApps\\\\Cmps183Project\\\\web2py\\\\applications\\\\welcome\\\\&#x27;])</div></td></tr><tr><td style="font-weight:bold;vertical-align:top;">applications_parent</td><td style="vertical-align:top;">:</td><td><div>C:\\Users\\Jack\\WorkspacePython\\Cmps183WebApps\\Cmps183Project\\web2py</div></td></tr><tr><td style="font-weight:bold;vertical-align:top;">cmd_args</td><td style="vertical-align:top;">:</td><td><div><table></table></div></td></tr><tr><td style="font-weight:bold;vertical-align:top;">cmd_options</td><td style="vertical-align:top;">:</td><td><div>&lt;Values at 0x6205b70: {&#x27;verbose&#x27;: False, &#x27;ip&#x27;: &#x27;127.0.0.1&#x27;, &#x27;debuglevel&#x27;: 30, &#x27;with_scheduler&#x27;: False, &#x27;shutdown_timeout&#x27;: 5, &#x27;taskbar&#x27;: False, &#x27;with_coverage&#x27;: False, &#x27;pid_filename&#x27;: &#x27;httpserver.pid&#x27;, &#x27;maxthreads&#x27;: None, &#x27;softcron&#x27;: False, &#x27;server_name&#x27;: &#x27;Jack-PC&#x27;, &#x27;bpython&#x27;: False, &#x27;nogui&#x27;: False, &#x27;port&#x27;: 8000, &#x27;print_errors&#x27;: True, &#x27;extcron&#x27;: False, &#x27;runcron&#x27;: False, &#x27;run_system_tests&#x27;: False, &#x27;test&#x27;: None, &#x27;folder&#x27;: &#x27;C:\\\\Users\\\\Jack\\\\WorkspacePython\\\\Cmps183WebApps\\\\Cmps183Project\\\\web2py&#x27;, &#x27;config&#x27;: &#x27;&#x27;, &#x27;minthreads&#x27;: None, &#x27;shell&#x27;: None, &#x27;run&#x27;: &#x27;&#x27;, &#x27;log_filename&#x27;: &#x27;httpserver.log&#x27;, &#x27;profiler_dir&#x27;: None, &#x27;args&#x27;: [&#x27;&#x27;], &#x27;socket_timeout&#x27;: 5, &#x27;ssl_ca_certificate&#x27;: None, &#x27;scheduler&#x27;: None, &#x27;interfaces&#x27;: None, &#x27;ssl_private_key&#x27;: &#x27;&#x27;, &#x27;gae&#x27;: None, &#x27;password&#x27;: &#x27;******&#x27;, &#x27;request_queue_size&#x27;: 5, &#x27;ssl_certificate&#x27;: &#x27;&#x27;, &#x27;cronjob&#x27;: False, &#x27;numthreads&#x27;: None, &#x27;quiet&#x27;: False, &#x27;import_models&#x27;: False, &#x27;timeout&#x27;: 10, &#x27;plain&#x27;: False, &#x27;nobanner&#x27;: False}&gt;</div></td></tr><tr><td style="font-weight:bold;vertical-align:top;">db_sessions</td><td style="vertical-align:top;">:</td><td><div>set([&#x27;mercenary_game&#x27;])</div></td></tr><tr><td style="font-weight:bold;vertical-align:top;">debugging</td><td style="vertical-align:top;">:</td><td><div>True</div></td></tr><tr><td style="font-weight:bold;vertical-align:top;">gluon_parent</td><td style="vertical-align:top;">:</td><td><div>C:\\Users\\Jack\\WorkspacePython\\Cmps183WebApps\\Cmps183Project\\web2py</div></td></tr><tr><td style="font-weight:bold;vertical-align:top;">is_jython</td><td style="vertical-align:top;">:</td><td><div>False</div></td></tr><tr><td style="font-weight:bold;vertical-align:top;">is_py2</td><td style="vertical-align:top;">:</td><td><div>True</div></td></tr><tr><td style="font-weight:bold;vertical-align:top;">is_pypy</td><td style="vertical-align:top;">:</td><td><div>False</div></td></tr><tr><td style="font-weight:bold;vertical-align:top;">is_source</td><td style="vertical-align:top;">:</td><td><div>True</div></td></tr><tr><td style="font-weight:bold;vertical-align:top;">local_hosts</td><td style="vertical-align:top;">:</td><td><div><table><tr><td><div>fe80::89a0:7f36:a9bf:6966%29</div></td></tr><tr><td><div>169.233.238.8</div></td></tr><tr><td><div>::ffff:127.0.0.1</div></td></tr><tr><td><div>::1</div></td></tr><tr><td><div>192.168.10.1</div></td></tr><tr><td><div>fe80::44e:f5b1:5483:4599%20</div></td></tr><tr><td><div>Jack-PC</div></td></tr><tr><td><div>fe80::4d3f:c5c:441b:a5fe%10</div></td></tr><tr><td><div>192.168.159.1</div></td></tr><tr><td><div>127.0.0.1</div></td></tr></table></div></td></tr><tr><td style="font-weight:bold;vertical-align:top;">web2py_version</td><td style="vertical-align:top;">:</td><td><div>2.16.1-stable+timestamp.2017.11.14.05.54.25</div></td></tr></table></div></td></tr><tr><td style="font-weight:bold;vertical-align:top;">is_https</td><td style="vertical-align:top;">:</td><td><div>False</div></td></tr><tr><td style="font-weight:bold;vertical-align:top;">is_local</td><td style="vertical-align:top;">:</td><td><div>True</div></td></tr><tr><td style="font-weight:bold;vertical-align:top;">is_restful</td><td style="vertical-align:top;">:</td><td><div>False</div></td></tr><tr><td style="font-weight:bold;vertical-align:top;">is_scheduler</td><td style="vertical-align:top;">:</td><td><div>False</div></td></tr><tr><td style="font-weight:bold;vertical-align:top;">is_shell</td><td style="vertical-align:top;">:</td><td><div>False</div></td></tr><tr><td style="font-weight:bold;vertical-align:top;">now</td><td style="vertical-align:top;">:</td><td><div>datetime.datetime(2018, 6, 11, 23, 49, 27, 387000)</div></td></tr><tr><td style="font-weight:bold;vertical-align:top;">raw_args</td><td style="vertical-align:top;">:</td><td><div></div></td></tr><tr><td style="font-weight:bold;vertical-align:top;">raw_extension</td><td style="vertical-align:top;">:</td><td><div>None</div></td></tr><tr><td style="font-weight:bold;vertical-align:top;">url</td><td style="vertical-align:top;">:</td><td><div>/mercenary_game/api/save_resources</div></td></tr><tr><td style="font-weight:bold;vertical-align:top;">utcnow</td><td style="vertical-align:top;">:</td><td><div>datetime.datetime(2018, 6, 12, 6, 49, 27, 387000)</div></td></tr><tr><td style="font-weight:bold;vertical-align:top;">wsgi</td><td style="vertical-align:top;">:</td><td><div>&lt;gluon.main.LazyWSGI object at 0x0D57C290&gt;</div></td></tr></table></div>'
tRp64
sS'frames'
p65
(lp66
(dp67
S'file'
p68
S'C:\\Users\\Jack\\WorkspacePython\\Cmps183WebApps\\Cmps183Project\\web2py\\gluon\\restricted.py'
p69
sS'dump'
p70
(dp71
S'environment'
p72
S"{'A': <class 'gluon.html.A'>, 'ANY_OF': <class 'gluon.validators.ANY_OF'>, 'ASSIGNJS': <function ASSIGNJS>, 'AppConfig': <function AppConfig>, 'Auth': <class 'gluon.tools.Auth'>, 'B': <class 'gluon.html.B'>, 'BEAUTIFY': <class 'gluon.html.BEAUTIFY'>, 'BODY': <class 'gluon.html.BODY'>, 'BR': <class 'gluon.html.BR'>, 'BUTTON': <class 'gluon.html.BUTTON'>, ...}"
p73
sS'ccode'
p74
S'<code object <module> at 0C524968, file "C:\\User...tions\\mercenary_game\\controllers/api.py", line 3>'
p75
ssS'lnum'
p76
I219
sS'lines'
p77
(dp78
I214
S'    if environment is None:'
p79
sI215
S'        environment = {}'
p80
sI216
S"    environment['__file__'] = layer"
p81
sI217
S"    environment['__name__'] = '__restricted__'"
p82
sI218
S'    try:'
p83
sI219
S'        exec(ccode, environment)'
p84
sI220
S'    except HTTP:'
p85
sI221
S'        raise'
p86
sI222
S'    except RestrictedError:'
p87
sI223
S'        # do not encapsulate (obfuscate) the original RestrictedError'
p88
ssS'call'
p89
S'(ccode=<code object <module> at 0C524968, file "C:\\User...tions\\mercenary_game\\controllers/api.py", line 3>, environment={\'A\': <class \'gluon.html.A\'>, \'ANY_OF\': <class \'gluon.validators.ANY_OF\'>, \'ASSIGNJS\': <function ASSIGNJS>, \'AppConfig\': <function AppConfig>, \'Auth\': <class \'gluon.tools.Auth\'>, \'B\': <class \'gluon.html.B\'>, \'BEAUTIFY\': <class \'gluon.html.BEAUTIFY\'>, \'BODY\': <class \'gluon.html.BODY\'>, \'BR\': <class \'gluon.html.BR\'>, \'BUTTON\': <class \'gluon.html.BUTTON\'>, ...}, layer=r\'C:\\Users\\Jack\\WorkspacePython\\Cmps183WebApps\\Cmp...py\\applications\\mercenary_game\\controllers/api.py\', scode=<code object <module> at 0C524968, file "C:\\User...tions\\mercenary_game\\controllers/api.py", line 3>)'
p90
sS'func'
p91
S'restricted'
p92
sa(dp93
g68
S'C:\\Users\\Jack\\WorkspacePython\\Cmps183WebApps\\Cmps183Project\\web2py\\applications\\mercenary_game\\controllers\\api.py'
p94
sg70
(dp95
sg76
I133
sg77
(dp96
I128
S'\t\t\ttin=valuesToStore[7],'
p97
sI129
S'\t\t\twood=valuesToStore[8],'
p98
sI130
S'\t\t\tgrass=valuesToStore[8]'
p99
sI131
S'\t\t)'
p100
sI132
S'\t\treturn result'
p101
sI123
S'\t\t\tfur=valuesToStore[2],'
p102
sI124
S'\t\t\tiron=valuesToStore[3],'
p103
sI125
S'\t\t\tmithril=valuesToStore[4],'
p104
sI126
S'\t\t\tsteel=valuesToStore[5],'
p105
sI127
S'\t\t\tstone=valuesToStore[6],'
p106
ssg89
S'()'
p107
sg91
S'<module>'
p108
sa(dp109
g68
S'C:\\Users\\Jack\\WorkspacePython\\Cmps183WebApps\\Cmps183Project\\web2py\\gluon\\globals.py'
p110
sg70
(dp111
S'self'
p112
S'undefined'
p113
sS'f'
S'<function save_resources>'
p114
ssg76
I419
sg77
(dp115
I416
S'        self.menu = []             # used by the default view layout'
p116
sI417
S'        self.files = []            # used by web2py_ajax.html'
p117
sI418
S'        self._vars = None'
p118
sI419
S'        self._caller = lambda f: f()'
p119
sI420
S'        self._view_environment = None'
p120
sI421
S'        self._custom_commit = None'
p121
sI422
S'        self._custom_rollback = None'
p122
sI423
S"        self.generic_patterns = ['*']"
p123
sI414
S"        self.flash = ''            # used by the default view layout"
p124
sI415
S'        self.meta = Storage()      # used by web2py_ajax.html'
p125
ssg89
S'(f=<function save_resources>)'
p126
sg91
S'<lambda>'
p127
sa(dp128
g68
S'C:\\Users\\Jack\\WorkspacePython\\Cmps183WebApps\\Cmps183Project\\web2py\\applications\\mercenary_game\\controllers\\api.py'
p129
sg70
(dp130
S'global db'
p131
S'<DAL uri="sqlite://storage.sqlite">'
p132
sS'q'
S'<Query ("userdb"."user_email" = \'fake@yahoo.com\')>'
p133
sS').select'
p134
g113
sS'row'
p135
g113
ssg76
I89
sg77
(dp136
I84
S'\tvaluesToStore=[0,0,0,0,0,      0,0,0,0,0]'
p137
sI85
S'\tif auth.user is None:'
p138
sI86
S'\t\treturn'
p139
sI87
S'\t# print "save_counter!!!!!!!!!!!!!!!!!"'
p140
sI88
S'\tq=(db.userdb.user_email ==auth.user.email)'
p141
sI89
S'\trow=db(q).select().first()'
p142
sI90
S'\tprint "~~~~~~~~~~~~~~~~~~~~"'
p143
sI91
S'\tprint "~~~~~~~~~~~~~~~~~~~~"'
p144
sI92
S'\tprint request.vars'
p145
sI93
S'\tprint "~~~~~~~~~~~~~~~~~~~~"'
p146
ssg89
S'()'
p147
sg91
S'save_resources'
p148
sa(dp149
g68
S'C:\\Users\\Jack\\WorkspacePython\\Cmps183WebApps\\Cmps183Project\\web2py\\gluon\\packages\\dal\\pydal\\objects.py'
p150
sg70
(dp151
S'self.query'
p152
S'<Query ("userdb"."user_email" = \'fake@yahoo.com\')>'
p153
sS'adapter.select'
p154
S'<bound method SQLite.select of <pydal.adapters.sqlite.SQLite object>>'
p155
sS'fields'
p156
S'[<pydal.objects.Field object>, <pydal.objects.Field object>, <pydal.objects.Field object>, <pydal.objects.Field object>, <pydal.objects.Field object>, <pydal.objects.Field object>, <pydal.objects.Field object>, <pydal.objects.Field object>, <pydal.objects.Field object>, <pydal.objects.Field object>, <pydal.objects.Field object>, <pydal.objects.Field object>, <pydal.objects.Field object>, <pydal.objects.Field object>, <pydal.objects.Field object>, <pydal.objects.Field object>, <pydal.objects.Field object>, <pydal.objects.Field object>, <pydal.objects.Field object>, <pydal.objects.Field object>, ...]'
p157
sS'adapter'
p158
S'<pydal.adapters.sqlite.SQLite object>'
p159
sS'attributes'
p160
g21
sS'self'
p161
S'<Set ("userdb"."user_email" = \'fake@yahoo.com\')>'
p162
ssg76
I2250
sg77
(dp163
I2245
S"                                    attributes.get('join', None),"
p164
sI2246
S"                                    attributes.get('left', None),"
p165
sI2247
S"                                    attributes.get('orderby', None),"
p166
sI2248
S"                                    attributes.get('groupby', None))"
p167
sI2249
S'        fields = adapter.expand_all(fields, tablenames)'
p168
sI2250
S'        return adapter.select(self.query, fields, attributes)'
p169
sI2251
S''
sI2252
S'    def iterselect(self, *fields, **attributes):'
p170
sI2253
S'        adapter = self.db._adapter'
p171
sI2254
S'        tablenames = adapter.tables(self.query,'
p172
ssg89
S'(self=<Set ("userdb"."user_email" = \'fake@yahoo.com\')>, *fields=[<pydal.objects.Field object>, <pydal.objects.Field object>, <pydal.objects.Field object>, <pydal.objects.Field object>, <pydal.objects.Field object>, <pydal.objects.Field object>, <pydal.objects.Field object>, <pydal.objects.Field object>, <pydal.objects.Field object>, <pydal.objects.Field object>, <pydal.objects.Field object>, <pydal.objects.Field object>, <pydal.objects.Field object>, <pydal.objects.Field object>, <pydal.objects.Field object>, <pydal.objects.Field object>, <pydal.objects.Field object>, <pydal.objects.Field object>, <pydal.objects.Field object>, <pydal.objects.Field object>, ...], **attributes={})'
p173
sg91
S'select'
p174
sa(dp175
g68
S'C:\\Users\\Jack\\WorkspacePython\\Cmps183WebApps\\Cmps183Project\\web2py\\gluon\\packages\\dal\\pydal\\adapters\\sqlite.py'
p176
sg70
(dp177
S'fields'
p178
S'[<pydal.objects.Field object>, <pydal.objects.Field object>, <pydal.objects.Field object>, <pydal.objects.Field object>, <pydal.objects.Field object>, <pydal.objects.Field object>, <pydal.objects.Field object>, <pydal.objects.Field object>, <pydal.objects.Field object>, <pydal.objects.Field object>, <pydal.objects.Field object>, <pydal.objects.Field object>, <pydal.objects.Field object>, <pydal.objects.Field object>, <pydal.objects.Field object>, <pydal.objects.Field object>, <pydal.objects.Field object>, <pydal.objects.Field object>, <pydal.objects.Field object>, <pydal.objects.Field object>, ...]'
p179
sS'self'
p180
S'<pydal.adapters.sqlite.SQLite object>'
p181
sS').select'
p182
S'<bound method SQLite.select of <pydal.adapters.sqlite.SQLite object>>'
p183
sS'attributes'
p184
g21
sS'query'
p185
S'<Query ("userdb"."user_email" = \'fake@yahoo.com\')>'
p186
sS'builtinsuper'
p187
S"<type 'super'>"
p188
sS'global SQLite'
p189
S"<class 'pydal.adapters.sqlite.SQLite'>"
p190
ssg76
I82
sg77
(dp191
I77
S"            self.execute('PRAGMA foreign_keys=ON;')"
p192
sI78
S''
sI79
S'    def select(self, query, fields, attributes):'
p193
sI80
S"        if attributes.get('for_update', False) and 'cache' not in attributes:"
p194
sI81
S"            self.execute('BEGIN IMMEDIATE TRANSACTION;')"
p195
sI82
S'        return super(SQLite, self).select(query, fields, attributes)'
p196
sI83
S''
sI84
S'    def delete(self, table, query):'
p197
sI85
S'        db = self.db'
p198
sI86
S'        deleted = [x[table._id.name] for x in db(query).select(table._id)]'
p199
ssg89
S'(self=<pydal.adapters.sqlite.SQLite object>, query=<Query ("userdb"."user_email" = \'fake@yahoo.com\')>, fields=[<pydal.objects.Field object>, <pydal.objects.Field object>, <pydal.objects.Field object>, <pydal.objects.Field object>, <pydal.objects.Field object>, <pydal.objects.Field object>, <pydal.objects.Field object>, <pydal.objects.Field object>, <pydal.objects.Field object>, <pydal.objects.Field object>, <pydal.objects.Field object>, <pydal.objects.Field object>, <pydal.objects.Field object>, <pydal.objects.Field object>, <pydal.objects.Field object>, <pydal.objects.Field object>, <pydal.objects.Field object>, <pydal.objects.Field object>, <pydal.objects.Field object>, <pydal.objects.Field object>, ...], attributes={})'
p200
sg91
g174
sa(dp201
g68
S'C:\\Users\\Jack\\WorkspacePython\\Cmps183WebApps\\Cmps183Project\\web2py\\gluon\\packages\\dal\\pydal\\adapters\\base.py'
p202
sg70
(dp203
S'self._select_aux'
p204
S'<bound method SQLite._select_aux of <pydal.adapters.sqlite.SQLite object>>'
p205
sS'fields'
p206
S'[<pydal.objects.Field object>, <pydal.objects.Field object>, <pydal.objects.Field object>, <pydal.objects.Field object>, <pydal.objects.Field object>, <pydal.objects.Field object>, <pydal.objects.Field object>, <pydal.objects.Field object>, <pydal.objects.Field object>, <pydal.objects.Field object>, <pydal.objects.Field object>, <pydal.objects.Field object>, <pydal.objects.Field object>, <pydal.objects.Field object>, <pydal.objects.Field object>, <pydal.objects.Field object>, <pydal.objects.Field object>, <pydal.objects.Field object>, <pydal.objects.Field object>, <pydal.objects.Field object>, ...]'
p207
sS'self'
p208
S'<pydal.adapters.sqlite.SQLite object>'
p209
sS'sql'
p210
S'\'SELECT "userdb"."id", "userdb"."user_email", "us...WHERE ("userdb"."user_email" = \\\'fake@yahoo.com\\\');\''
p211
sS'attributes'
p212
g21
sS'colnames'
p213
S"['userdb.id', 'userdb.user_email', 'userdb.created_on', 'userdb.updated_on', 'userdb.counter', 'userdb.coal', 'userdb.copper', 'userdb.fur', 'userdb.grass', 'userdb.iron', 'userdb.mithril', 'userdb.steel', 'userdb.stone', 'userdb.tin', 'userdb.wood', 'userdb.houses', 'userdb.workers', 'userdb.mages', 'userdb.warriors', 'userdb.bowmen', ...]"
p214
ssg76
I762
sg77
(dp215
I757
S'        colnames, sql = self._select_wcols(query, fields, **attributes)'
p216
sI758
S"        cache = attributes.get('cache', None)"
p217
sI759
S"        if cache and attributes.get('cacheable', False):"
p218
sI760
S'            return self._cached_select('
p219
sI761
S'                cache, sql, fields, attributes, colnames)'
p220
sI762
S'        return self._select_aux(sql, fields, attributes, colnames)'
p221
sI763
S''
sI764
S'    def iterselect(self, query, fields, attributes):'
p222
sI765
S'        colnames, sql = self._select_wcols(query, fields, **attributes)'
p223
sI766
S"        cacheable = attributes.get('cacheable', False)"
p224
ssg89
S'(self=<pydal.adapters.sqlite.SQLite object>, query=<Query ("userdb"."user_email" = \'fake@yahoo.com\')>, fields=[<pydal.objects.Field object>, <pydal.objects.Field object>, <pydal.objects.Field object>, <pydal.objects.Field object>, <pydal.objects.Field object>, <pydal.objects.Field object>, <pydal.objects.Field object>, <pydal.objects.Field object>, <pydal.objects.Field object>, <pydal.objects.Field object>, <pydal.objects.Field object>, <pydal.objects.Field object>, <pydal.objects.Field object>, <pydal.objects.Field object>, <pydal.objects.Field object>, <pydal.objects.Field object>, <pydal.objects.Field object>, <pydal.objects.Field object>, <pydal.objects.Field object>, <pydal.objects.Field object>, ...], attributes={})'
p225
sg91
g174
sa(dp226
g68
S'C:\\Users\\Jack\\WorkspacePython\\Cmps183WebApps\\Cmps183Project\\web2py\\gluon\\packages\\dal\\pydal\\adapters\\base.py'
p227
sg70
(dp228
S'self'
p229
S'<pydal.adapters.sqlite.SQLite object>'
p230
sS'rows'
p231
g113
sS'self._select_aux_execute'
p232
S'<bound method SQLite._select_aux_execute of <pydal.adapters.sqlite.SQLite object>>'
p233
sS'sql'
p234
S'\'SELECT "userdb"."id", "userdb"."user_email", "us...WHERE ("userdb"."user_email" = \\\'fake@yahoo.com\\\');\''
p235
ssg76
I718
sg77
(dp236
I713
S'        return self.cursor.fetchall()'
p237
sI714
S''
sI715
S'    def _select_aux(self, sql, fields, attributes, colnames):'
p238
sI716
S"        cache = attributes.get('cache', None)"
p239
sI717
S'        if not cache:'
p240
sI718
S'            rows = self._select_aux_execute(sql)'
p241
sI719
S'        else:'
p242
sI720
S'            if isinstance(cache, dict):'
p243
sI721
S"                cache_model = cache['model']"
p244
sI722
S"                time_expire = cache['expiration']"
p245
ssg89
S'(self=<pydal.adapters.sqlite.SQLite object>, sql=\'SELECT "userdb"."id", "userdb"."user_email", "us...WHERE ("userdb"."user_email" = \\\'fake@yahoo.com\\\');\', fields=[<pydal.objects.Field object>, <pydal.objects.Field object>, <pydal.objects.Field object>, <pydal.objects.Field object>, <pydal.objects.Field object>, <pydal.objects.Field object>, <pydal.objects.Field object>, <pydal.objects.Field object>, <pydal.objects.Field object>, <pydal.objects.Field object>, <pydal.objects.Field object>, <pydal.objects.Field object>, <pydal.objects.Field object>, <pydal.objects.Field object>, <pydal.objects.Field object>, <pydal.objects.Field object>, <pydal.objects.Field object>, <pydal.objects.Field object>, <pydal.objects.Field object>, <pydal.objects.Field object>, ...], attributes={}, colnames=[\'userdb.id\', \'userdb.user_email\', \'userdb.created_on\', \'userdb.updated_on\', \'userdb.counter\', \'userdb.coal\', \'userdb.copper\', \'userdb.fur\', \'userdb.grass\', \'userdb.iron\', \'userdb.mithril\', \'userdb.steel\', \'userdb.stone\', \'userdb.tin\', \'userdb.wood\', \'userdb.houses\', \'userdb.workers\', \'userdb.mages\', \'userdb.warriors\', \'userdb.bowmen\', ...])'
p246
sg91
S'_select_aux'
p247
sa(dp248
g68
S'C:\\Users\\Jack\\WorkspacePython\\Cmps183WebApps\\Cmps183Project\\web2py\\gluon\\packages\\dal\\pydal\\adapters\\base.py'
p249
sg70
(dp250
S'self'
p251
S'<pydal.adapters.sqlite.SQLite object>'
p252
sS'self.execute'
p253
S'<bound method SQLite.wrap of <pydal.adapters.sqlite.SQLite object>>'
p254
sS'sql'
p255
S'\'SELECT "userdb"."id", "userdb"."user_email", "us...WHERE ("userdb"."user_email" = \\\'fake@yahoo.com\\\');\''
p256
ssg76
I712
sg77
(dp257
I707
S''
sI708
S'    def nested_select(self, query, fields, attributes):'
p258
sI709
S'        return Select(self.db, query, fields, attributes)'
p259
sI710
S''
sI711
S'    def _select_aux_execute(self, sql):'
p260
sI712
S'        self.execute(sql)'
p261
sI713
S'        return self.cursor.fetchall()'
p262
sI714
S''
sI715
S'    def _select_aux(self, sql, fields, attributes, colnames):'
p263
sI716
S"        cache = attributes.get('cache', None)"
p264
ssg89
S'(self=<pydal.adapters.sqlite.SQLite object>, sql=\'SELECT "userdb"."id", "userdb"."user_email", "us...WHERE ("userdb"."user_email" = \\\'fake@yahoo.com\\\');\')'
p265
sg91
S'_select_aux_execute'
p266
sa(dp267
g68
S'C:\\Users\\Jack\\WorkspacePython\\Cmps183WebApps\\Cmps183Project\\web2py\\gluon\\packages\\dal\\pydal\\adapters\\__init__.py'
p268
sg70
(dp269
S'kwargs'
p270
g21
sS'args'
p271
S'(<pydal.adapters.sqlite.SQLite object>, \'SELECT "userdb"."id", "userdb"."user_email", "us...WHERE ("userdb"."user_email" = \\\'fake@yahoo.com\\\');\')'
p272
sS'f'
S'<function execute>'
p273
ssg76
I67
sg77
(dp274
I64
S'            if len(args) > 1:'
p275
sI65
S'                raise ValueError(args[1])'
p276
sI66
S"            raise RuntimeError('no connection available')"
p277
sI67
S'        return f(*args, **kwargs)'
p278
sI68
S'    return wrap'
p279
sI69
S''
sI70
S''
sI71
S'from .base import SQLAdapter, NoSQLAdapter'
p280
sI62
S'    def wrap(*args, **kwargs):'
p281
sI63
S'        if not args[0].connection:'
p282
ssg89
S'(*args=(<pydal.adapters.sqlite.SQLite object>, \'SELECT "userdb"."id", "userdb"."user_email", "us...WHERE ("userdb"."user_email" = \\\'fake@yahoo.com\\\');\'), **kwargs={})'
p283
sg91
S'wrap'
p284
sa(dp285
g68
S'C:\\Users\\Jack\\WorkspacePython\\Cmps183WebApps\\Cmps183Project\\web2py\\gluon\\packages\\dal\\pydal\\adapters\\base.py'
p286
sg70
(dp287
S'rv'
p288
g113
sS'self'
p289
S'<pydal.adapters.sqlite.SQLite object>'
p290
sS'args'
p291
S'(\'SELECT "userdb"."id", "userdb"."user_email", "us...WHERE ("userdb"."user_email" = \\\'fake@yahoo.com\\\');\',)'
p292
sS'self.cursor'
p293
S'<sqlite3.Cursor object>'
p294
sS'command'
p295
S'\'SELECT "userdb"."id", "userdb"."user_email", "us...WHERE ("userdb"."user_email" = \\\'fake@yahoo.com\\\');\''
p296
sS'self.cursor.execute'
p297
S'<built-in method execute of sqlite3.Cursor object>'
p298
sS'kwargs'
p299
g21
ssg76
I412
sg77
(dp300
I416
S''
sI407
S'    def execute(self, *args, **kwargs):'
p301
sI408
S'        command = self.filter_sql_command(args[0])'
p302
sI409
S'        handlers = self._build_handlers_for_execution()'
p303
sI410
S'        for handler in handlers:'
p304
sI411
S'            handler.before_execute(command)'
p305
sI412
S'        rv = self.cursor.execute(command, *args[1:], **kwargs)'
p306
sI413
S'        for handler in handlers:'
p307
sI414
S'            handler.after_execute(command)'
p308
sI415
S'        return rv'
p309
ssg89
S'(self=<pydal.adapters.sqlite.SQLite object>, *args=(\'SELECT "userdb"."id", "userdb"."user_email", "us...WHERE ("userdb"."user_email" = \\\'fake@yahoo.com\\\');\',), **kwargs={})'
p310
sg91
S'execute'
p311
sasS'pyver'
p312
S'Python 2.7.11: C:\\Python27\\python.exe (prefix: C:\\Python27)'
p313
sS'session'
p314
g63
(S's\xe0\x08\x00\x00<div><table><tr><td style="font-weight:bold;vertical-align:top;">auth</td><td style="vertical-align:top;">:</td><td><div><table><tr><td style="font-weight:bold;vertical-align:top;">expiration</td><td style="vertical-align:top;">:</td><td><div>3600</div></td></tr><tr><td style="font-weight:bold;vertical-align:top;">hmac_key</td><td style="vertical-align:top;">:</td><td><div>127e2312-3a60-483e-b76a-9bdfb37721e2</div></td></tr><tr><td style="font-weight:bold;vertical-align:top;">last_visit</td><td style="vertical-align:top;">:</td><td><div>datetime.datetime(2018, 6, 11, 23, 49, 27, 387000)</div></td></tr><tr><td style="font-weight:bold;vertical-align:top;">remember_me</td><td style="vertical-align:top;">:</td><td><div>False</div></td></tr><tr><td style="font-weight:bold;vertical-align:top;">user</td><td style="vertical-align:top;">:</td><td><div><table><tr><td style="font-weight:bold;vertical-align:top;">email</td><td style="vertical-align:top;">:</td><td><div>fake@yahoo.com</div></td></tr><tr><td style="font-weight:bold;vertical-align:top;">first_name</td><td style="vertical-align:top;">:</td><td><div>fake</div></td></tr><tr><td style="font-weight:bold;vertical-align:top;">id</td><td style="vertical-align:top;">:</td><td><div>9L</div></td></tr><tr><td style="font-weight:bold;vertical-align:top;">last_name</td><td style="vertical-align:top;">:</td><td><div>0</div></td></tr><tr><td style="font-weight:bold;vertical-align:top;">registration_id</td><td style="vertical-align:top;">:</td><td><div></div></td></tr><tr><td style="font-weight:bold;vertical-align:top;">registration_key</td><td style="vertical-align:top;">:</td><td><div></div></td></tr><tr><td style="font-weight:bold;vertical-align:top;">reset_password_key</td><td style="vertical-align:top;">:</td><td><div></div></td></tr></table></div></td></tr><tr><td style="font-weight:bold;vertical-align:top;">user_groups</td><td style="vertical-align:top;">:</td><td><div><table><tr><td style="font-weight:bold;vertical-align:top;">9</td><td style="vertical-align:top;">:</td><td><div>user_9</div></td></tr></table></div></td></tr></table></div></td></tr><tr><td style="font-weight:bold;vertical-align:top;">flash</td><td style="vertical-align:top;">:</td><td><div>None</div></td></tr></table></div>'
tRp315
sS'etype'
p316
S"<class 'sqlite3.OperationalError'>"
p317
sS'date'
p318
S'Mon Jun 11 23:49:27 2018'
p319
sS'response'
p320
g63
(S's\xac \x00\x00<div><table><tr><td style="font-weight:bold;vertical-align:top;">body</td><td style="vertical-align:top;">:</td><td><div>&lt;cStringIO.StringO object at 0x0C3D4BC0&gt;</div></td></tr><tr><td style="font-weight:bold;vertical-align:top;">cookies</td><td style="vertical-align:top;">:</td><td><div><table><tr><td style="font-weight:bold;vertical-align:top;">session_id_mercenary_game</td><td style="vertical-align:top;">:</td><td><div>16:3fdbe514-e762-4fa1-9b3b-549a29d20857<table><tr><td style="font-weight:bold;vertical-align:top;">comment</td><td style="vertical-align:top;">:</td><td><div></div></td></tr><tr><td style="font-weight:bold;vertical-align:top;">domain</td><td style="vertical-align:top;">:</td><td><div></div></td></tr><tr><td style="font-weight:bold;vertical-align:top;">expires</td><td style="vertical-align:top;">:</td><td><div></div></td></tr><tr><td style="font-weight:bold;vertical-align:top;">httponly</td><td style="vertical-align:top;">:</td><td><div></div></td></tr><tr><td style="font-weight:bold;vertical-align:top;">max-age</td><td style="vertical-align:top;">:</td><td><div></div></td></tr><tr><td style="font-weight:bold;vertical-align:top;">path</td><td style="vertical-align:top;">:</td><td><div>/</div></td></tr><tr><td style="font-weight:bold;vertical-align:top;">secure</td><td style="vertical-align:top;">:</td><td><div></div></td></tr><tr><td style="font-weight:bold;vertical-align:top;">version</td><td style="vertical-align:top;">:</td><td><div></div></td></tr></table></div></td></tr></table></div></td></tr><tr><td style="font-weight:bold;vertical-align:top;">delimiters</td><td style="vertical-align:top;">:</td><td><div><table><tr><td><div>{{</div></td></tr><tr><td><div>}}</div></td></tr></table></div></td></tr><tr><td style="font-weight:bold;vertical-align:top;">files</td><td style="vertical-align:top;">:</td><td><div><table></table></div></td></tr><tr><td style="font-weight:bold;vertical-align:top;">flash</td><td style="vertical-align:top;">:</td><td><div></div></td></tr><tr><td style="font-weight:bold;vertical-align:top;">form_label_separator</td><td style="vertical-align:top;">:</td><td><div></div></td></tr><tr><td style="font-weight:bold;vertical-align:top;">formstyle</td><td style="vertical-align:top;">:</td><td><div>bootstrap3_inline</div></td></tr><tr><td style="font-weight:bold;vertical-align:top;">generic_patterns</td><td style="vertical-align:top;">:</td><td><div><table><tr><td><div>*</div></td></tr></table></div></td></tr><tr><td style="font-weight:bold;vertical-align:top;">google_analytics_id</td><td style="vertical-align:top;">:</td><td><div>None</div></td></tr><tr><td style="font-weight:bold;vertical-align:top;">headers</td><td style="vertical-align:top;">:</td><td><div><table><tr><td style="font-weight:bold;vertical-align:top;">X-Powered-By</td><td style="vertical-align:top;">:</td><td><div>web2py</div></td></tr></table></div></td></tr><tr><td style="font-weight:bold;vertical-align:top;">logo</td><td style="vertical-align:top;">:</td><td><div><a class="navbar-brand" href="http://www.web2py.com/" id="web2py-logo"><b>web<span>2</span>py</b>&trade;&nbsp;</a></div></td></tr><tr><td style="font-weight:bold;vertical-align:top;">menu</td><td style="vertical-align:top;">:</td><td><div><table><tr><td><div><table><tr><td><div>Home</div></td></tr><tr><td><div>False</div></td></tr><tr><td><div>/mercenary_game/default/index</div></td></tr><tr><td><div><table></table></div></td></tr></table></div></td></tr><tr><td><div><table><tr><td><div>My Sites</div></td></tr><tr><td><div>False</div></td></tr><tr><td><div>/admin/default/site</div></td></tr></table></div></td></tr><tr><td><div><table><tr><td><div>Sample Menu 1</div></td></tr><tr><td><div>False</div></td></tr><tr><td><div>#</div></td></tr><tr><td><div><table><tr><td><div><table><tr><td><div>Entry1</div></td></tr><tr><td><div>False</div></td></tr><tr><td><div>/mercenary_game/default/entry1</div></td></tr></table></div></td></tr><tr><td><div><table><tr><td><div>Entry2</div></td></tr><tr><td><div>False</div></td></tr><tr><td><div>/mercenary_game/default/entry2</div></td></tr></table></div></td></tr></table></div></td></tr></table></div></td></tr><tr><td><div><table><tr><td><div>Sample Menu 2</div></td></tr><tr><td><div>False</div></td></tr><tr><td><div>/mercenary_game/default/index</div></td></tr></table></div></td></tr></table></div></td></tr><tr><td style="font-weight:bold;vertical-align:top;">meta</td><td style="vertical-align:top;">:</td><td><div><table><tr><td style="font-weight:bold;vertical-align:top;">author</td><td style="vertical-align:top;">:</td><td><div>Your Name &lt;you@example.com&gt;</div></td></tr><tr><td style="font-weight:bold;vertical-align:top;">description</td><td style="vertical-align:top;">:</td><td><div>a cool new app</div></td></tr><tr><td style="font-weight:bold;vertical-align:top;">generator</td><td style="vertical-align:top;">:</td><td><div>Web2py Web Framework</div></td></tr><tr><td style="font-weight:bold;vertical-align:top;">keywords</td><td style="vertical-align:top;">:</td><td><div><table><tr><td><div>web2py</div></td></tr><tr><td><div>python</div></td></tr><tr><td><div>framework</div></td></tr></table></div></td></tr></table></div></td></tr><tr><td style="font-weight:bold;vertical-align:top;">models_to_run</td><td style="vertical-align:top;">:</td><td><div><table><tr><td><div>^\\w+\\.py$</div></td></tr><tr><td><div>^api/\\w+\\.py$</div></td></tr><tr><td><div>^api/save_resources/\\w+\\.py$</div></td></tr></table></div></td></tr><tr><td style="font-weight:bold;vertical-align:top;">postprocessing</td><td style="vertical-align:top;">:</td><td><div><table></table></div></td></tr><tr><td style="font-weight:bold;vertical-align:top;">session_client</td><td style="vertical-align:top;">:</td><td><div>127.0.0.1</div></td></tr><tr><td style="font-weight:bold;vertical-align:top;">session_cookie_compression_level</td><td style="vertical-align:top;">:</td><td><div>None</div></td></tr><tr><td style="font-weight:bold;vertical-align:top;">session_cookie_expires</td><td style="vertical-align:top;">:</td><td><div>None</div></td></tr><tr><td style="font-weight:bold;vertical-align:top;">session_data_name</td><td style="vertical-align:top;">:</td><td><div>session_data_mercenary_game</div></td></tr><tr><td style="font-weight:bold;vertical-align:top;">session_db_record_id</td><td style="vertical-align:top;">:</td><td><div>16L</div></td></tr><tr><td style="font-weight:bold;vertical-align:top;">session_db_table</td><td style="vertical-align:top;">:</td><td><div>&lt;Table web2py_session_mercenary_game (id, locked, client_ip, created_datetime, modified_datetime, unique_key, session_data)&gt;</div></td></tr><tr><td style="font-weight:bold;vertical-align:top;">session_db_unique_key</td><td style="vertical-align:top;">:</td><td><div>3fdbe514-e762-4fa1-9b3b-549a29d20857</div></td></tr><tr><td style="font-weight:bold;vertical-align:top;">session_hash</td><td style="vertical-align:top;">:</td><td><div>c019b81c88f34485742487813f47340a</div></td></tr><tr><td style="font-weight:bold;vertical-align:top;">session_id</td><td style="vertical-align:top;">:</td><td><div>16:3fdbe514-e762-4fa1-9b3b-549a29d20857</div></td></tr><tr><td style="font-weight:bold;vertical-align:top;">session_id_name</td><td style="vertical-align:top;">:</td><td><div>session_id_mercenary_game</div></td></tr><tr><td style="font-weight:bold;vertical-align:top;">session_masterapp</td><td style="vertical-align:top;">:</td><td><div>mercenary_game</div></td></tr><tr><td style="font-weight:bold;vertical-align:top;">session_new</td><td style="vertical-align:top;">:</td><td><div>False</div></td></tr><tr><td style="font-weight:bold;vertical-align:top;">session_storage_type</td><td style="vertical-align:top;">:</td><td><div>db</div></td></tr><tr><td style="font-weight:bold;vertical-align:top;">status</td><td style="vertical-align:top;">:</td><td><div>200</div></td></tr><tr><td style="font-weight:bold;vertical-align:top;">subtitle</td><td style="vertical-align:top;">:</td><td><div></div></td></tr><tr><td style="font-weight:bold;vertical-align:top;">title</td><td style="vertical-align:top;">:</td><td><div>Mercenary Game</div></td></tr><tr><td style="font-weight:bold;vertical-align:top;">view</td><td style="vertical-align:top;">:</td><td><div>api/save_resources.html</div></td></tr></table></div>'
tRp321
sS'locals'
p322
(dp323
S'handlers'
p324
S'[<pydal.helpers.classes.TimingHandler object>]'
p325
sS'self'
p326
S'<pydal.adapters.sqlite.SQLite object>'
p327
sg48
S'(\'SELECT "userdb"."id", "userdb"."user_email", "us...WHERE ("userdb"."user_email" = \\\'fake@yahoo.com\\\');\',)'
p328
sS'handler'
p329
S'<pydal.helpers.classes.TimingHandler object>'
p330
sS'command'
p331
S'\'SELECT "userdb"."id", "userdb"."user_email", "us...WHERE ("userdb"."user_email" = \\\'fake@yahoo.com\\\');\''
p332
sS'kwargs'
p333
g21
sssS'traceback'
p334
S'Traceback (most recent call last):\n  File "C:\\Users\\Jack\\WorkspacePython\\Cmps183WebApps\\Cmps183Project\\web2py\\gluon\\restricted.py", line 219, in restricted\n    exec(ccode, environment)\n  File "C:\\Users\\Jack\\WorkspacePython\\Cmps183WebApps\\Cmps183Project\\web2py\\applications\\mercenary_game\\controllers/api.py", line 133, in <module>\n  File "C:\\Users\\Jack\\WorkspacePython\\Cmps183WebApps\\Cmps183Project\\web2py\\gluon\\globals.py", line 419, in <lambda>\n    self._caller = lambda f: f()\n  File "C:\\Users\\Jack\\WorkspacePython\\Cmps183WebApps\\Cmps183Project\\web2py\\applications\\mercenary_game\\controllers/api.py", line 89, in save_resources\n    row=db(q).select().first()\n  File "C:\\Users\\Jack\\WorkspacePython\\Cmps183WebApps\\Cmps183Project\\web2py\\gluon\\packages\\dal\\pydal\\objects.py", line 2250, in select\n    return adapter.select(self.query, fields, attributes)\n  File "C:\\Users\\Jack\\WorkspacePython\\Cmps183WebApps\\Cmps183Project\\web2py\\gluon\\packages\\dal\\pydal\\adapters\\sqlite.py", line 82, in select\n    return super(SQLite, self).select(query, fields, attributes)\n  File "C:\\Users\\Jack\\WorkspacePython\\Cmps183WebApps\\Cmps183Project\\web2py\\gluon\\packages\\dal\\pydal\\adapters\\base.py", line 762, in select\n    return self._select_aux(sql, fields, attributes, colnames)\n  File "C:\\Users\\Jack\\WorkspacePython\\Cmps183WebApps\\Cmps183Project\\web2py\\gluon\\packages\\dal\\pydal\\adapters\\base.py", line 718, in _select_aux\n    rows = self._select_aux_execute(sql)\n  File "C:\\Users\\Jack\\WorkspacePython\\Cmps183WebApps\\Cmps183Project\\web2py\\gluon\\packages\\dal\\pydal\\adapters\\base.py", line 712, in _select_aux_execute\n    self.execute(sql)\n  File "C:\\Users\\Jack\\WorkspacePython\\Cmps183WebApps\\Cmps183Project\\web2py\\gluon\\packages\\dal\\pydal\\adapters\\__init__.py", line 67, in wrap\n    return f(*args, **kwargs)\n  File "C:\\Users\\Jack\\WorkspacePython\\Cmps183WebApps\\Cmps183Project\\web2py\\gluon\\packages\\dal\\pydal\\adapters\\base.py", line 412, in execute\n    rv = self.cursor.execute(command, *args[1:], **kwargs)\nOperationalError: no such column: userdb.created_on\n'
p335
s.